; Function Attrs: mustprogress nofree norecurse nosync nounwind willreturn memory(readwrite, inaccessiblemem: none) uwtable
define internal noundef i32 @rhsQ(double %0, ptr noundef readonly captures(none) %1, ptr readnone captures(none) %2, ptr noundef readonly captures(none) %3, ptr noundef readonly captures(none) %4) #5 {
  %6 = getelementptr inbounds nuw i8, ptr %4, i64 8
  %7 = load double, ptr %6, align 8, !tbaa !14
  %8 = getelementptr inbounds nuw i8, ptr %4, i64 32
  %9 = load double, ptr %8, align 8, !tbaa !15
  %10 = getelementptr inbounds nuw i8, ptr %4, i64 16
  %11 = load double, ptr %10, align 8, !tbaa !17
  %12 = load ptr, ptr %1, align 8, !tbaa !21
  %13 = getelementptr inbounds nuw i8, ptr %12, i64 16
  %14 = load ptr, ptr %13, align 8, !tbaa !24
  %15 = getelementptr inbounds nuw i8, ptr %14, i64 24
  %16 = load double, ptr %15, align 8, !tbaa !18
  %17 = getelementptr inbounds nuw i8, ptr %14, i64 32
  %18 = load double, ptr %17, align 8, !tbaa !18
  %19 = getelementptr inbounds nuw i8, ptr %14, i64 40
  %20 = load double, ptr %19, align 8, !tbaa !18
  %21 = fmul double %7, %16
  %22 = fmul double %9, %18
  %23 = fmul double %18, %22
  %24 = tail call double @llvm.fmuladd.f64(double %21, double %16, double %23)
  %25 = fmul double %11, %20
  %26 = tail call double @llvm.fmuladd.f64(double %25, double %20, double %24)
  %27 = fmul double %26, 5.000000e-01
  %28 = load ptr, ptr %3, align 8, !tbaa !21
  %29 = getelementptr inbounds nuw i8, ptr %28, i64 16
  %30 = load ptr, ptr %29, align 8, !tbaa !24
  store double %27, ptr %30, align 8, !tbaa !18
  ret i32 0
}